target datalayout = "e-m:e-p270:32:32-p271:32:32-p272:64:64-i64:64-i128:128-f80:128-n8:16:32:64-S128"
target triple = "x86_64-pc-linux-gnu"

%struct.test_fixture = type { ptr, ptr }

@.str = private unnamed_addr constant [31 x i8] c"../openssl/test/cmp_ctx_test.c\00", align 1
@.str.40 = private unnamed_addr constant [24 x i8] c"test_CTX_set_get_status\00", align 1
@.str.62 = private unnamed_addr constant [17 x i8] c"ERR_peek_error()\00", align 1
@.str.63 = private unnamed_addr constant [2 x i8] c"0\00", align 1
@.str.65 = private unnamed_addr constant [43 x i8] c"getter did not return error on ctx == NULL\00", align 1
@.str.66 = private unnamed_addr constant [26 x i8] c"did not get default value\00", align 1
@.str.67 = private unnamed_addr constant [27 x i8] c"setting first value failed\00", align 1
@.str.68 = private unnamed_addr constant [34 x i8] c"set/get first value did not match\00", align 1
@.str.69 = private unnamed_addr constant [28 x i8] c"setting second value failed\00", align 1
@.str.70 = private unnamed_addr constant [27 x i8] c"second set reset the value\00", align 1
@.str.71 = private unnamed_addr constant [35 x i8] c"set/get second value did not match\00", align 1
@.str.72 = private unnamed_addr constant [26 x i8] c"third set reset the value\00", align 1
@.str.73 = private unnamed_addr constant [31 x i8] c"third get gave different value\00", align 1
@.str.74 = private unnamed_addr constant [4 x i8] c"res\00", align 1

; Function Attrs: nounwind uwtable
define internal void @tear_down(ptr noundef %0) #0 {
  %2 = alloca ptr, align 8
  store ptr %0, ptr %2, align 8, !tbaa !15
  %3 = load ptr, ptr %2, align 8, !tbaa !15
  %4 = icmp ne ptr %3, null
  br i1 %4, label %5, label %9

5:                                                ; preds = %1
  %6 = load ptr, ptr %2, align 8, !tbaa !15
  %7 = getelementptr inbounds nuw %struct.test_fixture, ptr %6, i32 0, i32 1
  %8 = load ptr, ptr %7, align 8, !tbaa !17
  call void @OSSL_CMP_CTX_free(ptr noundef %8)
  br label %9

9:                                                ; preds = %5, %1
  %10 = load ptr, ptr %2, align 8, !tbaa !15
  call void @CRYPTO_free(ptr noundef %10, ptr noundef @.str, i32 noundef 25)
  ret void
}

; Function Attrs: nounwind uwtable
define internal i32 @execute_CTX_set_get_status(ptr noundef %0) #0 {
  %2 = alloca ptr, align 8
  %3 = alloca ptr, align 8
  %4 = alloca ptr, align 8
  %5 = alloca ptr, align 8
  %6 = alloca i32, align 4
  %7 = alloca i32, align 4
  %8 = alloca i32, align 4
  %9 = alloca i32, align 4
  %10 = alloca i32, align 4
  %11 = alloca i32, align 4
  %12 = alloca i32, align 4
  %13 = alloca i32, align 4
  store ptr %0, ptr %2, align 8, !tbaa !15
  call void @llvm.lifetime.start.p0(i64 8, ptr %3) #5
  %14 = load ptr, ptr %2, align 8, !tbaa !15
  %15 = getelementptr inbounds nuw %struct.test_fixture, ptr %14, i32 0, i32 1
  %16 = load ptr, ptr %15, align 8, !tbaa !17
  store ptr %16, ptr %3, align 8, !tbaa !11
  call void @llvm.lifetime.start.p0(i64 8, ptr %4) #5
  store ptr @ossl_cmp_ctx_set_status, ptr %4, align 8, !tbaa !50
  call void @llvm.lifetime.start.p0(i64 8, ptr %5) #5
  store ptr @OSSL_CMP_CTX_get_status, ptr %5, align 8, !tbaa !50
  call void @llvm.lifetime.start.p0(i64 4, ptr %6) #5
  store i32 1, ptr %6, align 4, !tbaa !13
  call void @llvm.lifetime.start.p0(i64 4, ptr %7) #5
  %17 = load i32, ptr %6, align 4, !tbaa !13
  store i32 %17, ptr %7, align 4, !tbaa !13
  call void @llvm.lifetime.start.p0(i64 4, ptr %8) #5
  store i32 0, ptr %8, align 4, !tbaa !13
  call void @llvm.lifetime.start.p0(i64 4, ptr %9) #5
  store i32 1, ptr %9, align 4, !tbaa !13
  call void @llvm.lifetime.start.p0(i64 4, ptr %10) #5
  %18 = load i32, ptr %9, align 4, !tbaa !13
  store i32 %18, ptr %10, align 4, !tbaa !13
  call void @llvm.lifetime.start.p0(i64 4, ptr %11) #5
  store i32 0, ptr %11, align 4, !tbaa !13
  call void @llvm.lifetime.start.p0(i64 4, ptr %12) #5
  store i32 0, ptr %12, align 4, !tbaa !13
  call void @llvm.lifetime.start.p0(i64 4, ptr %13) #5
  store i32 1, ptr %13, align 4, !tbaa !13
  %19 = call i64 @ERR_peek_error()
  %20 = trunc i64 %19 to i32
  %21 = call i32 @test_int_eq(ptr noundef @.str, i32 noundef 801, ptr noundef @.str.62, ptr noundef @.str.63, i32 noundef %20, i32 noundef 0)
  %22 = icmp ne i32 %21, 0
  br i1 %22, label %24, label %23

23:                                               ; preds = %1
  store i32 0, ptr %13, align 4, !tbaa !13
  br label %24

24:                                               ; preds = %23, %1
  call void @ERR_clear_error()
  %25 = load ptr, ptr %5, align 8, !tbaa !50
  %26 = call i32 %25(ptr noundef null)
  %27 = icmp ne i32 %26, -1
  br i1 %27, label %31, label %28

28:                                               ; preds = %24
  %29 = call i64 @ERR_peek_error()
  %30 = icmp eq i64 %29, 0
  br i1 %30, label %31, label %32

31:                                               ; preds = %28, %24
  call void (ptr, i32, ptr, ...) @test_error(ptr noundef @.str, i32 noundef 801, ptr noundef @.str.65)
  store i32 0, ptr %13, align 4, !tbaa !13
  br label %32

32:                                               ; preds = %31, %28
  call void @ERR_clear_error()
  %33 = load ptr, ptr %5, align 8, !tbaa !50
  %34 = load ptr, ptr %3, align 8, !tbaa !11
  %35 = call i32 %33(ptr noundef %34)
  store i32 %35, ptr %8, align 4, !tbaa !13
  %36 = load i32, ptr %8, align 4, !tbaa !13
  %37 = icmp slt i32 %36, 0
  br i1 %37, label %39, label %38

38:                                               ; preds = %32
  call void (ptr, i32, ptr, ...) @test_error(ptr noundef @.str, i32 noundef 801, ptr noundef @.str.66)
  store i32 0, ptr %13, align 4, !tbaa !13
  br label %39

39:                                               ; preds = %38, %32
  %40 = load ptr, ptr %4, align 8, !tbaa !50
  %41 = load ptr, ptr %3, align 8, !tbaa !11
  %42 = load i32, ptr %7, align 4, !tbaa !13
  %43 = call i32 %40(ptr noundef %41, i32 noundef %42)
  %44 = icmp ne i32 %43, 0
  br i1 %44, label %46, label %45

45:                                               ; preds = %39
  call void (ptr, i32, ptr, ...) @test_error(ptr noundef @.str, i32 noundef 801, ptr noundef @.str.67)
  store i32 0, ptr %13, align 4, !tbaa !13
  br label %46

46:                                               ; preds = %45, %39
  store i32 0, ptr %6, align 4, !tbaa !13
  %47 = load ptr, ptr %5, align 8, !tbaa !50
  %48 = load ptr, ptr %3, align 8, !tbaa !11
  %49 = call i32 %47(ptr noundef %48)
  store i32 %49, ptr %8, align 4, !tbaa !13
  %50 = load i32, ptr %8, align 4, !tbaa !13
  %51 = load i32, ptr %7, align 4, !tbaa !13
  %52 = icmp ne i32 %50, %51
  br i1 %52, label %53, label %54

53:                                               ; preds = %46
  call void (ptr, i32, ptr, ...) @test_error(ptr noundef @.str, i32 noundef 801, ptr noundef @.str.68)
  store i32 0, ptr %13, align 4, !tbaa !13
  br label %54

54:                                               ; preds = %53, %46
  %55 = load ptr, ptr %4, align 8, !tbaa !50
  %56 = load ptr, ptr %3, align 8, !tbaa !11
  %57 = load i32, ptr %10, align 4, !tbaa !13
  %58 = call i32 %55(ptr noundef %56, i32 noundef %57)
  %59 = icmp ne i32 %58, 0
  br i1 %59, label %61, label %60

60:                                               ; preds = %54
  call void (ptr, i32, ptr, ...) @test_error(ptr noundef @.str, i32 noundef 801, ptr noundef @.str.69)
  store i32 0, ptr %13, align 4, !tbaa !13
  br label %61

61:                                               ; preds = %60, %54
  store i32 0, ptr %9, align 4, !tbaa !13
  %62 = load ptr, ptr %5, align 8, !tbaa !50
  %63 = load ptr, ptr %3, align 8, !tbaa !11
  %64 = call i32 %62(ptr noundef %63)
  store i32 %64, ptr %11, align 4, !tbaa !13
  %65 = load i32, ptr %11, align 4, !tbaa !13
  %66 = icmp slt i32 %65, 0
  br i1 %66, label %67, label %68

67:                                               ; preds = %61
  call void (ptr, i32, ptr, ...) @test_error(ptr noundef @.str, i32 noundef 801, ptr noundef @.str.70)
  store i32 0, ptr %13, align 4, !tbaa !13
  br label %68

68:                                               ; preds = %67, %61
  %69 = load i32, ptr %11, align 4, !tbaa !13
  %70 = load i32, ptr %10, align 4, !tbaa !13
  %71 = icmp ne i32 %69, %70
  br i1 %71, label %72, label %73

72:                                               ; preds = %68
  call void (ptr, i32, ptr, ...) @test_error(ptr noundef @.str, i32 noundef 801, ptr noundef @.str.71)
  store i32 0, ptr %13, align 4, !tbaa !13
  br label %73

73:                                               ; preds = %72, %68
  %74 = load ptr, ptr %5, align 8, !tbaa !50
  %75 = load ptr, ptr %3, align 8, !tbaa !11
  %76 = call i32 %74(ptr noundef %75)
  store i32 %76, ptr %12, align 4, !tbaa !13
  %77 = load i32, ptr %12, align 4, !tbaa !13
  %78 = icmp slt i32 %77, 0
  br i1 %78, label %79, label %80

79:                                               ; preds = %73
  call void (ptr, i32, ptr, ...) @test_error(ptr noundef @.str, i32 noundef 801, ptr noundef @.str.72)
  store i32 0, ptr %13, align 4, !tbaa !13
  br label %80

80:                                               ; preds = %79, %73
  %81 = load i32, ptr %12, align 4, !tbaa !13
  %82 = load i32, ptr %11, align 4, !tbaa !13
  %83 = icmp ne i32 %81, %82
  br i1 %83, label %84, label %85

84:                                               ; preds = %80
  call void (ptr, i32, ptr, ...) @test_error(ptr noundef @.str, i32 noundef 801, ptr noundef @.str.73)
  store i32 0, ptr %13, align 4, !tbaa !13
  br label %85

85:                                               ; preds = %84, %80
  %86 = call i64 @ERR_peek_error()
  %87 = trunc i64 %86 to i32
  %88 = call i32 @test_int_eq(ptr noundef @.str, i32 noundef 801, ptr noundef @.str.62, ptr noundef @.str.63, i32 noundef %87, i32 noundef 0)
  %89 = icmp ne i32 %88, 0
  br i1 %89, label %91, label %90

90:                                               ; preds = %85
  store i32 0, ptr %13, align 4, !tbaa !13
  br label %91

91:                                               ; preds = %90, %85
  %92 = load i32, ptr %13, align 4, !tbaa !13
  %93 = icmp ne i32 %92, 0
  %94 = zext i1 %93 to i32
  %95 = call i32 @test_true(ptr noundef @.str, i32 noundef 801, ptr noundef @.str.74, i32 noundef %94)
  call void @llvm.lifetime.end.p0(i64 4, ptr %13) #5
  call void @llvm.lifetime.end.p0(i64 4, ptr %12) #5
  call void @llvm.lifetime.end.p0(i64 4, ptr %11) #5
  call void @llvm.lifetime.end.p0(i64 4, ptr %10) #5
  call void @llvm.lifetime.end.p0(i64 4, ptr %9) #5
  call void @llvm.lifetime.end.p0(i64 4, ptr %8) #5
  call void @llvm.lifetime.end.p0(i64 4, ptr %7) #5
  call void @llvm.lifetime.end.p0(i64 4, ptr %6) #5
  call void @llvm.lifetime.end.p0(i64 8, ptr %5) #5
  call void @llvm.lifetime.end.p0(i64 8, ptr %4) #5
  call void @llvm.lifetime.end.p0(i64 8, ptr %3) #5
  ret i32 %95
}

; Function Attrs: nounwind uwtable
define internal i32 @test_CTX_set_get_status() #0 {
  %1 = alloca i32, align 4
  %2 = alloca ptr, align 8
  %3 = alloca i32, align 4
  %4 = alloca i32, align 4
  call void @llvm.lifetime.start.p0(i64 8, ptr %2) #5
  %5 = call ptr @set_up(ptr noundef @.str.40)
  store ptr %5, ptr %2, align 8, !tbaa !15
  call void @llvm.lifetime.start.p0(i64 4, ptr %3) #5
  store i32 0, ptr %3, align 4, !tbaa !13
  %6 = load ptr, ptr %2, align 8, !tbaa !15
  %7 = icmp eq ptr %6, null
  br i1 %7, label %8, label %9

8:                                                ; preds = %0
  store i32 0, ptr %1, align 4
  store i32 1, ptr %4, align 4
  br label %18

9:                                                ; preds = %0
  %10 = load ptr, ptr %2, align 8, !tbaa !15
  %11 = icmp ne ptr %10, null
  br i1 %11, label %12, label %16

12:                                               ; preds = %9
  %13 = load ptr, ptr %2, align 8, !tbaa !15
  %14 = call i32 @execute_CTX_set_get_status(ptr noundef %13)
  store i32 %14, ptr %3, align 4, !tbaa !13
  %15 = load ptr, ptr %2, align 8, !tbaa !15
  call void @tear_down(ptr noundef %15)
  br label %16

16:                                               ; preds = %12, %9
  %17 = load i32, ptr %3, align 4, !tbaa !13
  store i32 %17, ptr %1, align 4
  store i32 1, ptr %4, align 4
  br label %18

18:                                               ; preds = %16, %8
  call void @llvm.lifetime.end.p0(i64 4, ptr %3) #5
  call void @llvm.lifetime.end.p0(i64 8, ptr %2) #5
  %19 = load i32, ptr %1, align 4
  ret i32 %19
}