; Function Attrs: nounwind uwtable
define internal i32 @test_CTX_set_get_status() #1 {
  %1 = tail call fastcc ptr @set_up(ptr noundef nonnull @.str.40)
  %2 = icmp eq ptr %1, null
  br i1 %2, label %45, label %3

3:                                                ; preds = %0
  %4 = getelementptr i8, ptr %1, i64 8
  %.val = load ptr, ptr %4, align 8, !tbaa !4
  %5 = tail call i64 @ERR_peek_error() #6
  %6 = trunc i64 %5 to i32
  %7 = tail call i32 @test_int_eq(ptr noundef nonnull @.str, i32 noundef 801, ptr noundef nonnull @.str.62, ptr noundef nonnull @.str.63, i32 noundef %6, i32 noundef 0) #6
  tail call void @ERR_clear_error() #6
  %8 = tail call i32 @OSSL_CMP_CTX_get_status(ptr noundef null) #6
  %.not27.i = icmp eq i32 %8, -1
  br i1 %.not27.i, label %9, label %12

9:                                                ; preds = %3
  %.not.i = icmp ne i32 %7, 0
  %spec.select.i = zext i1 %.not.i to i32
  %10 = tail call i64 @ERR_peek_error() #6
  %11 = icmp eq i64 %10, 0
  br i1 %11, label %12, label %13

12:                                               ; preds = %9, %3
  tail call void (ptr, i32, ptr, ...) @test_error(ptr noundef nonnull @.str, i32 noundef 801, ptr noundef nonnull @.str.65) #6
  br label %13

13:                                               ; preds = %12, %9
  %.1.i = phi i32 [ 0, %12 ], [ %spec.select.i, %9 ]
  tail call void @ERR_clear_error() #6
  %14 = tail call i32 @OSSL_CMP_CTX_get_status(ptr noundef %.val) #6
  %15 = icmp slt i32 %14, 0
  br i1 %15, label %17, label %16

16:                                               ; preds = %13
  tail call void (ptr, i32, ptr, ...) @test_error(ptr noundef nonnull @.str, i32 noundef 801, ptr noundef nonnull @.str.66) #6
  br label %17

17:                                               ; preds = %16, %13
  %.2.i = phi i32 [ %.1.i, %13 ], [ 0, %16 ]
  %18 = tail call i32 @ossl_cmp_ctx_set_status(ptr noundef %.val, i32 noundef 1) #6
  %.not28.i = icmp eq i32 %18, 0
  br i1 %.not28.i, label %19, label %20

19:                                               ; preds = %17
  tail call void (ptr, i32, ptr, ...) @test_error(ptr noundef nonnull @.str, i32 noundef 801, ptr noundef nonnull @.str.67) #6
  br label %20

20:                                               ; preds = %19, %17
  %.3.i = phi i32 [ %.2.i, %17 ], [ 0, %19 ]
  %21 = tail call i32 @OSSL_CMP_CTX_get_status(ptr noundef %.val) #6
  %.not29.i = icmp eq i32 %21, 1
  br i1 %.not29.i, label %23, label %22

22:                                               ; preds = %20
  tail call void (ptr, i32, ptr, ...) @test_error(ptr noundef nonnull @.str, i32 noundef 801, ptr noundef nonnull @.str.68) #6
  br label %23

23:                                               ; preds = %22, %20
  %.4.i = phi i32 [ 0, %22 ], [ %.3.i, %20 ]
  %24 = tail call i32 @ossl_cmp_ctx_set_status(ptr noundef %.val, i32 noundef 1) #6
  %.not30.i = icmp eq i32 %24, 0
  br i1 %.not30.i, label %25, label %26

25:                                               ; preds = %23
  tail call void (ptr, i32, ptr, ...) @test_error(ptr noundef nonnull @.str, i32 noundef 801, ptr noundef nonnull @.str.69) #6
  br label %26

26:                                               ; preds = %25, %23
  %.5.i = phi i32 [ %.4.i, %23 ], [ 0, %25 ]
  %27 = tail call i32 @OSSL_CMP_CTX_get_status(ptr noundef %.val) #6
  %28 = icmp slt i32 %27, 0
  br i1 %28, label %.thread.i, label %29

.thread.i:                                        ; preds = %26
  tail call void (ptr, i32, ptr, ...) @test_error(ptr noundef nonnull @.str, i32 noundef 801, ptr noundef nonnull @.str.70) #6
  br label %30

29:                                               ; preds = %26
  %.not31.i = icmp eq i32 %27, 1
  br i1 %.not31.i, label %31, label %30

30:                                               ; preds = %29, %.thread.i
  tail call void (ptr, i32, ptr, ...) @test_error(ptr noundef nonnull @.str, i32 noundef 801, ptr noundef nonnull @.str.71) #6
  br label %31

31:                                               ; preds = %30, %29
  %.7.i = phi i32 [ 0, %30 ], [ %.5.i, %29 ]
  %32 = tail call i32 @OSSL_CMP_CTX_get_status(ptr noundef %.val) #6
  %33 = icmp slt i32 %32, 0
  br i1 %33, label %34, label %35

34:                                               ; preds = %31
  tail call void (ptr, i32, ptr, ...) @test_error(ptr noundef nonnull @.str, i32 noundef 801, ptr noundef nonnull @.str.72) #6
  br label %35

35:                                               ; preds = %34, %31
  %.8.i = phi i32 [ 0, %34 ], [ %.7.i, %31 ]
  %.not32.i = icmp eq i32 %32, %27
  br i1 %.not32.i, label %tear_down.exit, label %36

36:                                               ; preds = %35
  tail call void (ptr, i32, ptr, ...) @test_error(ptr noundef nonnull @.str, i32 noundef 801, ptr noundef nonnull @.str.73) #6
  br label %tear_down.exit

tear_down.exit:                                   ; preds = %35, %36
  %.9.i = phi i32 [ 0, %36 ], [ %.8.i, %35 ]
  %37 = tail call i64 @ERR_peek_error() #6
  %38 = trunc i64 %37 to i32
  %39 = tail call i32 @test_int_eq(ptr noundef nonnull @.str, i32 noundef 801, ptr noundef nonnull @.str.62, ptr noundef nonnull @.str.63, i32 noundef %38, i32 noundef 0) #6
  %.not33.i = icmp ne i32 %39, 0
  %40 = icmp ne i32 %.9.i, 0
  %41 = select i1 %.not33.i, i1 %40, i1 false
  %42 = zext i1 %41 to i32
  %43 = tail call i32 @test_true(ptr noundef nonnull @.str, i32 noundef 801, ptr noundef nonnull @.str.74, i32 noundef %42) #6
  %44 = load ptr, ptr %4, align 8, !tbaa !4
  tail call void @OSSL_CMP_CTX_free(ptr noundef %44) #6
  tail call void @CRYPTO_free(ptr noundef nonnull %1, ptr noundef nonnull @.str, i32 noundef 25) #6
  br label %45

45:                                               ; preds = %0, %tear_down.exit
  %.05 = phi i32 [ %43, %tear_down.exit ], [ 0, %0 ]
  ret i32 %.05
}